Certificate:
    Data:
        Version: 3 (0x2)
        Serial Number: 4 (0x4)
    Signature Algorithm: sha1WithRSAEncryption
        Issuer: C=FR, ST=Essonne, L=Juvisy, O=Cantbreakit, CN=www.semestre2.fr/emailAddress=semestre2@mail.fr
        Validity
            Not Before: Oct 16 13:24:33 2016 GMT
            Not After : Oct 16 13:24:33 2017 GMT
        Subject: C=FR, ST=Essonne, L=Juvisy, O=Cantbreakit, CN=www.bata.fr/emailAddress=bata@cantbreakit.fr
        Subject Public Key Info:
            Public Key Algorithm: rsaEncryption
                Public-Key: (1024 bit)
                Modulus:
                    00:c7:13:85:ad:16:45:4f:11:8c:d2:bf:4a:f3:f9:
                    27:28:c0:5a:27:cb:a6:a7:6f:9c:95:b1:1b:9b:c8:
                    ec:93:8f:79:1f:c4:b8:7a:e5:32:c9:c7:be:c6:27:
                    bf:d7:87:7a:60:7f:db:d9:63:a0:11:5c:4e:dd:66:
                    d6:ae:e0:6b:43:94:6b:86:ab:6d:a9:93:06:25:a2:
                    50:e9:b1:2c:3f:be:c3:b5:b4:c1:af:c9:c6:9d:fb:
                    41:10:c3:bc:65:5b:3e:f9:35:b9:91:1b:2f:48:2d:
                    fe:d4:5d:90:67:3f:8c:a2:a2:0f:18:88:03:4a:6f:
                    a4:59:58:23:d9:24:f1:41:d7
                Exponent: 65537 (0x10001)
        X509v3 extensions:
            Netscape Comment: 
                Certificat Serveur SSL
            X509v3 Subject Key Identifier: 
                1A:17:B8:E1:B3:E3:47:46:26:C1:13:BF:42:24:D1:6F:54:8F:E6:3E
            X509v3 Authority Key Identifier: 
                keyid:7D:D9:08:E2:B3:9F:A8:A8:66:3E:88:D1:FF:D1:26:A2:06:2A:3E:FA
                DirName:/C=FR/ST=Ile-de-France/L=Grigny/O=Cantbreakit/CN=www.root.fr/emailAddress=root@mail.fr
                serial:02

            X509v3 Issuer Alternative Name: 
                <EMPTY>

            X509v3 Subject Alternative Name: 
                DNS:www.webserver.com, DNS:www.webserver-bis.com
            X509v3 Basic Constraints: critical
                CA:FALSE
            X509v3 Key Usage: 
                Digital Signature, Non Repudiation, Key Encipherment
            Netscape Cert Type: 
                SSL Server
            X509v3 Extended Key Usage: 
                TLS Web Server Authentication
    Signature Algorithm: sha1WithRSAEncryption
         43:62:5e:64:5e:c1:ee:97:59:f1:52:be:12:1e:72:bc:77:81:
         f2:36:a2:45:42:42:e9:cd:f0:e1:57:e5:03:01:8e:93:a4:60:
         83:28:47:f0:d9:b2:dc:47:8a:6a:71:ae:5c:c1:b5:12:73:8b:
         5e:22:fd:96:38:85:08:f3:46:37:a6:67:b1:80:06:d4:12:e1:
         f5:29:c7:a4:76:69:73:94:c6:6f:87:cc:27:0e:42:06:27:f5:
         07:63:c6:a8:74:b7:be:c6:f4:a7:34:b7:f9:c0:ef:35:b1:88:
         09:49:60:f8:f6:21:3b:c3:e2:6f:3b:48:73:b6:fb:c2:cd:cc:
         6c:5b:af:04:ee:16:4d:b3:e4:76:5c:69:bb:b1:40:46:71:bf:
         01:87:54:dc:0f:fd:b5:f4:69:6a:74:38:78:c2:c3:4d:19:99:
         78:31:dc:a8:7a:ad:93:48:5b:6a:fd:16:39:45:ec:a2:6f:60:
         9e:75:c3:f6:dd:e4:09:03:d0:25:8a:18:0e:87:50:3c:b4:33:
         39:f8:6f:ac:7d:1f:97:e6:88:f2:fc:55:e4:c1:6d:29:c4:a7:
         08:23:56:3f:e2:ad:70:2d:3a:40:41:42:aa:52:96:15:1f:4c:
         6e:c1:f9:88:40:5a:7a:b7:e5:eb:e7:fb:07:80:26:94:7c:24:
         15:7a:e2:e9
-----BEGIN CERTIFICATE-----
MIIEeTCCA2GgAwIBAgIBBDANBgkqhkiG9w0BAQUFADCBgzELMAkGA1UEBhMCRlIx
EDAOBgNVBAgMB0Vzc29ubmUxDzANBgNVBAcMBkp1dmlzeTEUMBIGA1UECgwLQ2Fu
dGJyZWFraXQxGTAXBgNVBAMMEHd3dy5zZW1lc3RyZTIuZnIxIDAeBgkqhkiG9w0B
CQEWEXNlbWVzdHJlMkBtYWlsLmZyMB4XDTE2MTAxNjEzMjQzM1oXDTE3MTAxNjEz
MjQzM1owgYAxCzAJBgNVBAYTAkZSMRAwDgYDVQQIDAdFc3Nvbm5lMQ8wDQYDVQQH
DAZKdXZpc3kxFDASBgNVBAoMC0NhbnRicmVha2l0MRQwEgYDVQQDDAt3d3cuYmF0
YS5mcjEiMCAGCSqGSIb3DQEJARYTYmF0YUBjYW50YnJlYWtpdC5mcjCBnzANBgkq
hkiG9w0BAQEFAAOBjQAwgYkCgYEAxxOFrRZFTxGM0r9K8/knKMBaJ8ump2+clbEb
m8jsk495H8S4euUyyce+xie/14d6YH/b2WOgEVxO3WbWruBrQ5RrhqttqZMGJaJQ
6bEsP77DtbTBr8nGnftBEMO8ZVs++TW5kRsvSC3+1F2QZz+MoqIPGIgDSm+kWVgj
2STxQdcCAwEAAaOCAXswggF3MCUGCWCGSAGG+EIBDQQYFhZDZXJ0aWZpY2F0IFNl
cnZldXIgU1NMMB0GA1UdDgQWBBQaF7jhs+NHRibBE79CJNFvVI/mPjCBqwYDVR0j
BIGjMIGggBR92Qjis5+oqGY+iNH/0SaiBio++qGBhKSBgTB/MQswCQYDVQQGEwJG
UjEWMBQGA1UECAwNSWxlLWRlLUZyYW5jZTEPMA0GA1UEBwwGR3JpZ255MRQwEgYD
VQQKDAtDYW50YnJlYWtpdDEUMBIGA1UEAwwLd3d3LnJvb3QuZnIxGzAZBgkqhkiG
9w0BCQEWDHJvb3RAbWFpbC5mcoIBAjAJBgNVHRIEAjAAMDMGA1UdEQQsMCqCEXd3
dy53ZWJzZXJ2ZXIuY29tghV3d3cud2Vic2VydmVyLWJpcy5jb20wDAYDVR0TAQH/
BAIwADALBgNVHQ8EBAMCBeAwEQYJYIZIAYb4QgEBBAQDAgZAMBMGA1UdJQQMMAoG
CCsGAQUFBwMBMA0GCSqGSIb3DQEBBQUAA4IBAQBDYl5kXsHul1nxUr4SHnK8d4Hy
NqJFQkLpzfDhV+UDAY6TpGCDKEfw2bLcR4pqca5cwbUSc4teIv2WOIUI80Y3pmex
gAbUEuH1KcekdmlzlMZvh8wnDkIGJ/UHY8aodLe+xvSnNLf5wO81sYgJSWD49iE7
w+JvO0hztvvCzcxsW68E7hZNs+R2XGm7sUBGcb8Bh1TcD/219GlqdDh4wsNNGZl4
Mdyoeq2TSFtq/RY5Reyib2CedcP23eQJA9AlihgOh1A8tDM5+G+sfR+X5ojy/FXk
wW0pxKcII1Y/4q1wLTpAQUKqUpYVH0xuwfmIQFp6t+Xr5/sHgCaUfCQVeuLp
-----END CERTIFICATE-----
