Certificate:
    Data:
        Version: 3 (0x2)
        Serial Number: 3 (0x3)
    Signature Algorithm: sha1WithRSAEncryption
        Issuer: C=FR, ST=Essonne, L=Juvisy, O=Cantbreakit, CN=www.semestre2.fr/emailAddress=semestre2@mail.fr
        Validity
            Not Before: Oct 16 13:23:28 2016 GMT
            Not After : Oct 16 13:23:28 2017 GMT
        Subject: C=FR, ST=Essonne, L=Juvisy, O=Cantbreakit, CN=server/emailAddress=server@cantbreakit.fr
        Subject Public Key Info:
            Public Key Algorithm: rsaEncryption
                Public-Key: (1024 bit)
                Modulus:
                    00:bb:2d:68:46:4b:af:08:38:0f:a1:46:85:5e:ea:
                    e5:7a:18:20:13:c0:55:2f:30:76:87:96:92:ce:83:
                    bd:25:6e:8f:2e:68:87:31:ca:06:8c:82:f3:73:b4:
                    8e:49:2f:9d:17:3d:70:6a:8d:c1:22:bd:25:c0:61:
                    c0:a7:e3:89:0e:ee:00:d8:03:16:f6:7c:36:0b:cb:
                    46:d3:b1:e0:c5:fd:c1:3f:30:2d:bb:a0:8a:31:4e:
                    d6:04:b0:13:77:cc:84:3f:9e:97:89:31:65:5c:e8:
                    47:d0:99:43:e5:1b:40:71:64:ba:9e:11:cb:2d:94:
                    a3:e4:e3:7e:6c:fe:90:11:3b
                Exponent: 65537 (0x10001)
        X509v3 extensions:
            Netscape Comment: 
                Certificat Serveur SSL
            X509v3 Subject Key Identifier: 
                D5:1E:4B:A8:7B:1C:36:E6:7F:C1:EB:DA:74:AC:F1:95:CC:21:5F:12
            X509v3 Authority Key Identifier: 
                keyid:7D:D9:08:E2:B3:9F:A8:A8:66:3E:88:D1:FF:D1:26:A2:06:2A:3E:FA
                DirName:/C=FR/ST=Ile-de-France/L=Grigny/O=Cantbreakit/CN=www.root.fr/emailAddress=root@mail.fr
                serial:02

            X509v3 Issuer Alternative Name: 
                <EMPTY>

            X509v3 Subject Alternative Name: 
                DNS:www.webserver.com, DNS:www.webserver-bis.com
            X509v3 Basic Constraints: critical
                CA:FALSE
            X509v3 Key Usage: 
                Digital Signature, Non Repudiation, Key Encipherment
            Netscape Cert Type: 
                SSL Server
            X509v3 Extended Key Usage: 
                TLS Web Server Authentication
    Signature Algorithm: sha1WithRSAEncryption
         81:29:12:ac:7b:9c:71:eb:f0:10:77:80:c7:8f:05:de:85:61:
         d0:ae:22:68:e4:bd:57:4a:00:2c:f1:66:e2:b6:8e:98:7f:65:
         58:56:d4:13:ad:15:cd:6b:c1:62:d9:d5:52:5b:c3:11:b6:5a:
         7b:f1:1e:59:22:fc:98:ad:46:36:72:ff:f8:4f:e9:42:59:d1:
         cd:19:64:45:12:52:83:24:4e:94:b7:15:29:33:63:70:a9:d1:
         d8:2a:5a:0b:f9:90:d2:c7:20:d4:d0:85:51:7b:c9:29:81:d2:
         1f:f6:f4:89:22:3f:cb:a6:a7:ec:1f:4f:fa:10:85:00:9e:35:
         bd:b7:56:90:29:f8:0e:bb:82:ca:f0:9a:01:e8:f6:6e:e7:3c:
         ac:e6:8f:ec:7d:eb:04:15:01:a5:7b:31:5a:dd:ee:a1:ca:dc:
         5a:cf:b6:37:7c:0c:f1:cc:bd:7d:18:57:ea:32:19:1c:d7:e6:
         a8:fe:01:e3:69:f3:94:8b:49:be:20:a5:3c:26:f2:d9:6a:da:
         62:ad:8d:f9:0e:10:0f:e8:b7:1a:2b:f9:d9:a6:00:f6:6d:47:
         fa:de:7b:7c:88:a7:40:94:21:18:15:a9:6d:fe:2f:2f:ea:d0:
         75:e0:25:ba:e6:37:fc:14:b6:ca:4c:e8:45:d6:8e:58:bf:ad:
         3d:d2:73:46
-----BEGIN CERTIFICATE-----
MIIEdTCCA12gAwIBAgIBAzANBgkqhkiG9w0BAQUFADCBgzELMAkGA1UEBhMCRlIx
EDAOBgNVBAgMB0Vzc29ubmUxDzANBgNVBAcMBkp1dmlzeTEUMBIGA1UECgwLQ2Fu
dGJyZWFraXQxGTAXBgNVBAMMEHd3dy5zZW1lc3RyZTIuZnIxIDAeBgkqhkiG9w0B
CQEWEXNlbWVzdHJlMkBtYWlsLmZyMB4XDTE2MTAxNjEzMjMyOFoXDTE3MTAxNjEz
MjMyOFowfTELMAkGA1UEBhMCRlIxEDAOBgNVBAgMB0Vzc29ubmUxDzANBgNVBAcM
Bkp1dmlzeTEUMBIGA1UECgwLQ2FudGJyZWFraXQxDzANBgNVBAMMBnNlcnZlcjEk
MCIGCSqGSIb3DQEJARYVc2VydmVyQGNhbnRicmVha2l0LmZyMIGfMA0GCSqGSIb3
DQEBAQUAA4GNADCBiQKBgQC7LWhGS68IOA+hRoVe6uV6GCATwFUvMHaHlpLOg70l
bo8uaIcxygaMgvNztI5JL50XPXBqjcEivSXAYcCn44kO7gDYAxb2fDYLy0bTseDF
/cE/MC27oIoxTtYEsBN3zIQ/npeJMWVc6EfQmUPlG0BxZLqeEcstlKPk435s/pAR
OwIDAQABo4IBezCCAXcwJQYJYIZIAYb4QgENBBgWFkNlcnRpZmljYXQgU2VydmV1
ciBTU0wwHQYDVR0OBBYEFNUeS6h7HDbmf8Hr2nSs8ZXMIV8SMIGrBgNVHSMEgaMw
gaCAFH3ZCOKzn6ioZj6I0f/RJqIGKj76oYGEpIGBMH8xCzAJBgNVBAYTAkZSMRYw
FAYDVQQIDA1JbGUtZGUtRnJhbmNlMQ8wDQYDVQQHDAZHcmlnbnkxFDASBgNVBAoM
C0NhbnRicmVha2l0MRQwEgYDVQQDDAt3d3cucm9vdC5mcjEbMBkGCSqGSIb3DQEJ
ARYMcm9vdEBtYWlsLmZyggECMAkGA1UdEgQCMAAwMwYDVR0RBCwwKoIRd3d3Lndl
YnNlcnZlci5jb22CFXd3dy53ZWJzZXJ2ZXItYmlzLmNvbTAMBgNVHRMBAf8EAjAA
MAsGA1UdDwQEAwIF4DARBglghkgBhvhCAQEEBAMCBkAwEwYDVR0lBAwwCgYIKwYB
BQUHAwEwDQYJKoZIhvcNAQEFBQADggEBAIEpEqx7nHHr8BB3gMePBd6FYdCuImjk
vVdKACzxZuK2jph/ZVhW1BOtFc1rwWLZ1VJbwxG2WnvxHlki/JitRjZy//hP6UJZ
0c0ZZEUSUoMkTpS3FSkzY3Cp0dgqWgv5kNLHINTQhVF7ySmB0h/29IkiP8ump+wf
T/oQhQCeNb23VpAp+A67gsrwmgHo9m7nPKzmj+x96wQVAaV7MVrd7qHK3FrPtjd8
DPHMvX0YV+oyGRzX5qj+AeNp85SLSb4gpTwm8tlq2mKtjfkOEA/otxor+dmmAPZt
R/ree3yIp0CUIRgVqW3+Ly/q0HXgJbrmN/wUtspM6EXWjli/rT3Sc0Y=
-----END CERTIFICATE-----
