Certificate:
    Data:
        Version: 3 (0x2)
        Serial Number: 2 (0x2)
    Signature Algorithm: sha1WithRSAEncryption
        Issuer: C=FR, ST=Seine-et-Marne, L=Melun, O=Cantbreakit, CN=www.semestre3.fr/emailAddress=semestre3@cantbreakit.fr
        Validity
            Not Before: Oct 16 13:12:03 2016 GMT
            Not After : Oct 16 13:12:03 2017 GMT
        Subject: C=FR, ST=Seine-et-Marne, L=Melun, O=Cantbreakit, CN=client/emailAddress=client@cantbreakit.fr
        Subject Public Key Info:
            Public Key Algorithm: rsaEncryption
                Public-Key: (1024 bit)
                Modulus:
                    00:cd:77:f3:dc:1e:56:7d:36:2a:af:12:43:c4:0c:
                    fc:e3:5c:86:68:c9:15:74:82:80:82:0d:c0:c7:c5:
                    5f:8c:2d:eb:de:c4:c0:33:81:8b:aa:8e:0a:08:1a:
                    dd:5a:76:9b:ad:80:60:03:c3:71:5a:b5:96:93:43:
                    43:e7:1a:ad:22:c1:e6:0d:7a:9e:c3:d3:19:d0:e1:
                    29:87:7d:0b:1d:6e:e8:8c:81:72:fb:ca:3a:df:a6:
                    fa:f9:fb:83:d9:d1:cd:d8:91:dd:f2:d1:e9:36:88:
                    e4:a0:92:51:40:3a:f4:7c:5f:20:0d:a2:24:e9:70:
                    6b:69:e4:7f:83:70:39:8b:89
                Exponent: 65537 (0x10001)
        X509v3 extensions:
            Netscape Comment: 
                Certificat Serveur SSL
            X509v3 Subject Key Identifier: 
                79:82:FB:4C:0B:61:52:42:2C:8D:37:4E:31:06:7F:48:F8:E7:A1:2B
            X509v3 Authority Key Identifier: 
                keyid:86:AA:98:79:38:39:CB:7C:22:D5:0A:66:DE:C8:30:64:11:FC:67:68
                DirName:/C=FR/ST=Ile-de-France/L=Grigny/O=Cantbreakit/CN=www.root.fr/emailAddress=root@mail.fr
                serial:03

            X509v3 Issuer Alternative Name: 
                <EMPTY>

            X509v3 Subject Alternative Name: 
                DNS:www.webserver.com, DNS:www.webserver-bis.com
            X509v3 Basic Constraints: critical
                CA:FALSE
            X509v3 Key Usage: 
                Digital Signature, Non Repudiation, Key Encipherment
            Netscape Cert Type: 
                SSL Server
            X509v3 Extended Key Usage: 
                TLS Web Server Authentication
    Signature Algorithm: sha1WithRSAEncryption
         b7:19:e9:46:a3:a8:28:2c:81:7f:40:09:ad:fb:e7:90:ca:ec:
         80:9d:8c:6c:23:37:d0:d8:e1:0a:3f:f0:a7:ca:9b:26:df:0e:
         b4:4f:70:df:f9:61:a1:5b:6b:b0:55:7a:4f:31:b8:2f:51:c2:
         98:0a:03:c1:b0:85:b7:8e:ed:78:aa:b6:50:46:c5:0e:9b:01:
         f0:21:07:76:ca:62:9b:bb:04:b9:39:73:87:a6:eb:4f:9e:3d:
         39:bb:7a:de:1e:0c:28:11:0d:53:f3:a7:1a:a1:0d:82:1b:0b:
         fd:49:1a:70:86:23:e5:8b:90:f1:d2:d4:8e:5d:eb:67:95:2c:
         37:2c:d2:a0:eb:d8:24:44:f1:8f:42:cb:44:7a:0e:bc:81:0d:
         98:4a:34:d4:08:6b:cc:48:da:e6:82:f5:af:16:0b:ba:b3:2a:
         81:6b:47:1b:d7:d1:da:b0:b4:b3:16:5c:82:17:60:bc:5c:1d:
         77:91:a8:81:da:ce:3f:9b:73:31:32:7a:0b:2a:85:30:c8:19:
         c3:28:48:4c:33:04:ac:82:15:a4:df:c4:88:44:bd:80:e7:8f:
         1b:24:37:d4:a9:0f:34:eb:fb:15:0a:e3:83:b4:cd:e6:c0:f1:
         be:5f:2b:9a:0d:5e:76:22:1d:b6:ca:43:53:50:8f:7d:a0:4c:
         59:93:3f:ee
-----BEGIN CERTIFICATE-----
MIIEiTCCA3GgAwIBAgIBAjANBgkqhkiG9w0BAQUFADCBkDELMAkGA1UEBhMCRlIx
FzAVBgNVBAgMDlNlaW5lLWV0LU1hcm5lMQ4wDAYDVQQHDAVNZWx1bjEUMBIGA1UE
CgwLQ2FudGJyZWFraXQxGTAXBgNVBAMMEHd3dy5zZW1lc3RyZTMuZnIxJzAlBgkq
hkiG9w0BCQEWGHNlbWVzdHJlM0BjYW50YnJlYWtpdC5mcjAeFw0xNjEwMTYxMzEy
MDNaFw0xNzEwMTYxMzEyMDNaMIGDMQswCQYDVQQGEwJGUjEXMBUGA1UECAwOU2Vp
bmUtZXQtTWFybmUxDjAMBgNVBAcMBU1lbHVuMRQwEgYDVQQKDAtDYW50YnJlYWtp
dDEPMA0GA1UEAwwGY2xpZW50MSQwIgYJKoZIhvcNAQkBFhVjbGllbnRAY2FudGJy
ZWFraXQuZnIwgZ8wDQYJKoZIhvcNAQEBBQADgY0AMIGJAoGBAM1389weVn02Kq8S
Q8QM/ONchmjJFXSCgIINwMfFX4wt697EwDOBi6qOCgga3Vp2m62AYAPDcVq1lpND
Q+carSLB5g16nsPTGdDhKYd9Cx1u6IyBcvvKOt+m+vn7g9nRzdiR3fLR6TaI5KCS
UUA69HxfIA2iJOlwa2nkf4NwOYuJAgMBAAGjggF7MIIBdzAlBglghkgBhvhCAQ0E
GBYWQ2VydGlmaWNhdCBTZXJ2ZXVyIFNTTDAdBgNVHQ4EFgQUeYL7TAthUkIsjTdO
MQZ/SPjnoSswgasGA1UdIwSBozCBoIAUhqqYeTg5y3wi1Qpm3sgwZBH8Z2ihgYSk
gYEwfzELMAkGA1UEBhMCRlIxFjAUBgNVBAgMDUlsZS1kZS1GcmFuY2UxDzANBgNV
BAcMBkdyaWdueTEUMBIGA1UECgwLQ2FudGJyZWFraXQxFDASBgNVBAMMC3d3dy5y
b290LmZyMRswGQYJKoZIhvcNAQkBFgxyb290QG1haWwuZnKCAQMwCQYDVR0SBAIw
ADAzBgNVHREELDAqghF3d3cud2Vic2VydmVyLmNvbYIVd3d3LndlYnNlcnZlci1i
aXMuY29tMAwGA1UdEwEB/wQCMAAwCwYDVR0PBAQDAgXgMBEGCWCGSAGG+EIBAQQE
AwIGQDATBgNVHSUEDDAKBggrBgEFBQcDATANBgkqhkiG9w0BAQUFAAOCAQEAtxnp
RqOoKCyBf0AJrfvnkMrsgJ2MbCM30NjhCj/wp8qbJt8OtE9w3/lhoVtrsFV6TzG4
L1HCmAoDwbCFt47teKq2UEbFDpsB8CEHdspim7sEuTlzh6brT549Obt63h4MKBEN
U/OnGqENghsL/UkacIYj5YuQ8dLUjl3rZ5UsNyzSoOvYJETxj0LLRHoOvIENmEo0
1AhrzEja5oL1rxYLurMqgWtHG9fR2rC0sxZcghdgvFwdd5GogdrOP5tzMTJ6CyqF
MMgZwyhITDMErIIVpN/EiES9gOePGyQ31KkPNOv7FQrjg7TN5sDxvl8rmg1ediId
tspDU1CPfaBMWZM/7g==
-----END CERTIFICATE-----
