Certificate:
    Data:
        Version: 3 (0x2)
        Serial Number: 3 (0x3)
    Signature Algorithm: sha1WithRSAEncryption
        Issuer: C=FR, ST=Ile-de-France, L=Grigny, O=Cantbreakit, CN=www.root.fr/emailAddress=root@mail.fr
        Validity
            Not Before: Oct 16 13:08:57 2016 GMT
            Not After : Oct 16 13:08:57 2017 GMT
        Subject: C=FR, ST=Seine-et-Marne, L=Melun, O=Cantbreakit, CN=www.semestre3.fr/emailAddress=semestre3@cantbreakit.fr
        Subject Public Key Info:
            Public Key Algorithm: rsaEncryption
                Public-Key: (2048 bit)
                Modulus:
                    00:ce:b4:74:2e:b9:77:af:12:00:89:1d:80:43:86:
                    00:37:f7:92:6c:bc:d7:6c:92:de:86:3c:9e:9b:cd:
                    fe:7c:23:72:88:68:7f:f2:df:24:be:56:09:08:c8:
                    b3:e0:da:56:df:3a:5c:68:ae:4d:34:6e:52:41:ba:
                    5e:2b:1d:5e:35:c2:63:ac:d7:c7:3e:50:44:17:5a:
                    3f:78:23:7f:16:51:dc:39:fe:88:ca:0d:c7:0a:48:
                    f8:af:5c:5a:ec:44:f7:70:93:ca:5b:f3:10:a9:38:
                    54:d4:94:30:39:d3:40:53:4a:fb:fd:52:69:8a:57:
                    79:d4:94:01:3e:b3:c6:3b:8a:7d:85:93:96:5d:64:
                    f9:db:3b:78:28:0d:f1:a4:43:e1:9a:60:8e:50:03:
                    ae:19:39:af:57:a2:59:0f:16:73:bf:cd:dd:17:87:
                    30:03:af:c6:88:a2:9d:f9:67:3e:5b:9a:66:0f:2a:
                    7e:08:c7:4b:a7:df:ca:62:e2:bf:9e:0c:db:10:9e:
                    1b:2a:89:64:9e:53:b1:e8:70:3a:f6:2a:5c:6e:b5:
                    2f:9d:ee:6e:8f:db:49:0a:92:21:4a:8f:0b:98:65:
                    3b:59:04:f5:76:88:8d:bf:dd:40:fd:f5:ca:25:72:
                    ea:f3:96:a8:d0:95:a0:3f:a7:a7:d9:4c:cf:bf:27:
                    7b:a3
                Exponent: 65537 (0x10001)
        X509v3 extensions:
            Netscape Comment: 
                CA SSL
            X509v3 Basic Constraints: critical
                CA:TRUE, pathlen:0
            X509v3 Subject Key Identifier: 
                86:AA:98:79:38:39:CB:7C:22:D5:0A:66:DE:C8:30:64:11:FC:67:68
            X509v3 Authority Key Identifier: 
                keyid:30:3C:77:9E:E8:95:1E:F8:1A:F3:3E:9A:B3:80:3B:4E:46:73:02:04
                DirName:/C=FR/ST=Ile-de-France/L=Grigny/O=Cantbreakit/CN=www.root.fr/emailAddress=root@mail.fr
                serial:B3:D8:34:06:EF:0A:DD:F8

            X509v3 Issuer Alternative Name: 
                <EMPTY>

            X509v3 Key Usage: 
                Certificate Sign, CRL Sign
            Netscape Cert Type: 
                SSL CA
    Signature Algorithm: sha1WithRSAEncryption
         89:99:5c:14:c8:c4:7a:ca:64:95:ce:55:b2:57:bc:d1:aa:7a:
         bb:0e:1d:b9:15:69:db:3a:4c:71:0f:46:53:0e:a9:7f:fd:20:
         af:83:21:1b:f3:7b:de:e4:92:bf:6e:6c:7b:f4:b0:93:00:f1:
         76:33:1b:fe:dd:f5:33:e6:8d:22:d5:57:bb:de:6a:51:83:01:
         b7:28:52:cb:b7:92:cc:71:4d:fc:d5:40:01:b0:a1:b0:17:de:
         77:7a:48:16:53:18:8e:53:81:b4:9c:c3:10:f2:f7:13:96:2c:
         fb:ea:ec:21:2b:7d:61:a8:29:ef:73:af:ff:7b:ec:10:c7:03:
         3f:05:71:df:d9:d7:fd:a0:bc:a1:3f:92:16:59:c4:72:3d:15:
         dd:89:c0:8d:65:31:1d:44:d1:87:a5:88:79:5c:dc:f3:b9:bf:
         e2:37:64:58:4e:2b:00:dd:8a:f2:56:6d:49:90:1e:5d:73:73:
         b1:c2:05:15:38:45:99:1e:b8:bb:eb:dd:96:86:5f:11:ce:d8:
         62:5c:b6:cf:61:ae:fb:c7:b8:34:80:09:5f:72:8e:54:0c:dd:
         03:c1:03:fe:d1:a3:05:94:f2:2d:34:46:a9:68:6c:52:a8:2d:
         bf:c2:72:f8:28:1c:ad:54:30:50:95:a2:2f:cd:5b:b4:0c:6a:
         1f:18:df:a2
-----BEGIN CERTIFICATE-----
MIIEvDCCA6SgAwIBAgIBAzANBgkqhkiG9w0BAQUFADB/MQswCQYDVQQGEwJGUjEW
MBQGA1UECAwNSWxlLWRlLUZyYW5jZTEPMA0GA1UEBwwGR3JpZ255MRQwEgYDVQQK
DAtDYW50YnJlYWtpdDEUMBIGA1UEAwwLd3d3LnJvb3QuZnIxGzAZBgkqhkiG9w0B
CQEWDHJvb3RAbWFpbC5mcjAeFw0xNjEwMTYxMzA4NTdaFw0xNzEwMTYxMzA4NTda
MIGQMQswCQYDVQQGEwJGUjEXMBUGA1UECAwOU2VpbmUtZXQtTWFybmUxDjAMBgNV
BAcMBU1lbHVuMRQwEgYDVQQKDAtDYW50YnJlYWtpdDEZMBcGA1UEAwwQd3d3LnNl
bWVzdHJlMy5mcjEnMCUGCSqGSIb3DQEJARYYc2VtZXN0cmUzQGNhbnRicmVha2l0
LmZyMIIBIjANBgkqhkiG9w0BAQEFAAOCAQ8AMIIBCgKCAQEAzrR0Lrl3rxIAiR2A
Q4YAN/eSbLzXbJLehjyem83+fCNyiGh/8t8kvlYJCMiz4NpW3zpcaK5NNG5SQbpe
Kx1eNcJjrNfHPlBEF1o/eCN/FlHcOf6Iyg3HCkj4r1xa7ET3cJPKW/MQqThU1JQw
OdNAU0r7/VJpild51JQBPrPGO4p9hZOWXWT52zt4KA3xpEPhmmCOUAOuGTmvV6JZ
DxZzv83dF4cwA6/GiKKd+Wc+W5pmDyp+CMdLp9/KYuK/ngzbEJ4bKolknlOx6HA6
9ipcbrUvne5uj9tJCpIhSo8LmGU7WQT1doiNv91A/fXKJXLq85ao0JWgP6en2UzP
vyd7owIDAQABo4IBLzCCASswFQYJYIZIAYb4QgENBAgWBkNBIFNTTDASBgNVHRMB
Af8ECDAGAQH/AgEAMB0GA1UdDgQWBBSGqph5ODnLfCLVCmbeyDBkEfxnaDCBswYD
VR0jBIGrMIGogBQwPHee6JUe+BrzPpqzgDtORnMCBKGBhKSBgTB/MQswCQYDVQQG
EwJGUjEWMBQGA1UECAwNSWxlLWRlLUZyYW5jZTEPMA0GA1UEBwwGR3JpZ255MRQw
EgYDVQQKDAtDYW50YnJlYWtpdDEUMBIGA1UEAwwLd3d3LnJvb3QuZnIxGzAZBgkq
hkiG9w0BCQEWDHJvb3RAbWFpbC5mcoIJALPYNAbvCt34MAkGA1UdEgQCMAAwCwYD
VR0PBAQDAgEGMBEGCWCGSAGG+EIBAQQEAwICBDANBgkqhkiG9w0BAQUFAAOCAQEA
iZlcFMjEespklc5Vsle80ap6uw4duRVp2zpMcQ9GUw6pf/0gr4MhG/N73uSSv25s
e/SwkwDxdjMb/t31M+aNItVXu95qUYMBtyhSy7eSzHFN/NVAAbChsBfed3pIFlMY
jlOBtJzDEPL3E5Ys++rsISt9Yagp73Ov/3vsEMcDPwVx39nX/aC8oT+SFlnEcj0V
3YnAjWUxHUTRh6WIeVzc87m/4jdkWE4rAN2K8lZtSZAeXXNzscIFFThFmR64u+vd
loZfEc7YYly2z2Gu+8e4NIAJX3KOVAzdA8ED/tGjBZTyLTRGqWhsUqgtv8Jy+Cgc
rVQwUJWiL81btAxqHxjfog==
-----END CERTIFICATE-----
