Certificate:
    Data:
        Version: 3 (0x2)
        Serial Number: 1 (0x1)
    Signature Algorithm: sha1WithRSAEncryption
        Issuer: C=FR, ST=Seine-et-Marne, L=Melun, O=Cantbreakit, CN=www.semestre3.fr/emailAddress=semestre3@cantbreakit.fr
        Validity
            Not Before: Oct 16 13:10:54 2016 GMT
            Not After : Oct 16 13:10:54 2017 GMT
        Subject: C=FR, ST=Seine-et-Marne, L=Melun, O=Cantbreakit, CN=www.test1.fr/emailAddress=test1@cantbreakit.fr
        Subject Public Key Info:
            Public Key Algorithm: rsaEncryption
                Public-Key: (1024 bit)
                Modulus:
                    00:d8:b6:ba:28:b2:10:1b:9f:82:56:35:ea:42:45:
                    55:e7:0a:d9:94:37:65:2e:db:67:7c:e8:c3:a9:2d:
                    f0:ca:eb:89:37:e0:8c:67:2c:06:13:34:d1:94:82:
                    9c:5a:76:64:a0:c6:f3:b9:c4:8b:19:54:b7:34:e7:
                    39:9f:b6:9b:9d:9a:9a:ea:6d:59:0d:e5:9d:25:16:
                    ba:d6:3c:04:d6:95:e3:a2:ed:ab:2b:12:99:4a:80:
                    91:0b:0d:34:51:b2:fd:e9:61:35:d8:f5:f0:d7:f8:
                    df:71:5b:8f:b1:bd:e2:79:89:76:dc:8c:00:2c:84:
                    77:33:b2:bb:f0:f7:41:a2:f7
                Exponent: 65537 (0x10001)
        X509v3 extensions:
            Netscape Comment: 
                Certificat Serveur SSL
            X509v3 Subject Key Identifier: 
                B1:3C:DB:74:DF:03:15:55:BB:6B:5E:70:4F:D7:10:E2:47:8A:E0:B7
            X509v3 Authority Key Identifier: 
                keyid:86:AA:98:79:38:39:CB:7C:22:D5:0A:66:DE:C8:30:64:11:FC:67:68
                DirName:/C=FR/ST=Ile-de-France/L=Grigny/O=Cantbreakit/CN=www.root.fr/emailAddress=root@mail.fr
                serial:03

            X509v3 Issuer Alternative Name: 
                <EMPTY>

            X509v3 Subject Alternative Name: 
                DNS:www.webserver.com, DNS:www.webserver-bis.com
            X509v3 Basic Constraints: critical
                CA:FALSE
            X509v3 Key Usage: 
                Digital Signature, Non Repudiation, Key Encipherment
            Netscape Cert Type: 
                SSL Server
            X509v3 Extended Key Usage: 
                TLS Web Server Authentication
    Signature Algorithm: sha1WithRSAEncryption
         79:67:d3:42:47:cb:33:32:e8:0f:df:6b:0f:a9:8d:40:de:6b:
         8f:f3:d1:0f:07:78:93:32:eb:72:33:f1:ed:eb:e5:9e:69:86:
         ee:1c:d1:69:20:04:5f:64:33:1d:23:a4:ed:53:db:36:07:a7:
         a5:cd:31:29:d9:ee:c5:e1:e5:6c:b0:4b:14:da:6f:90:a0:ac:
         30:bc:0f:a1:a2:5b:4c:26:4c:31:82:f9:99:70:32:dc:5b:84:
         e9:35:4f:a2:e5:1f:64:37:63:2c:d9:52:c6:cd:78:77:80:7c:
         89:2a:7f:1a:cc:20:5a:39:24:bd:2d:96:ce:0a:eb:1e:6d:7d:
         ae:dd:86:f9:a0:a0:bb:6b:5d:d2:a1:02:d3:0b:d0:85:f5:3f:
         00:eb:3f:55:40:dc:ac:4f:4e:45:7f:1c:68:fe:b5:5e:0c:9a:
         8a:1e:75:8c:26:84:66:b5:94:2e:ec:98:28:70:6e:da:f7:ab:
         a4:62:37:cf:9f:d3:70:88:89:cf:43:36:e6:7c:8b:1a:34:27:
         a7:d1:2a:36:f2:ae:82:ec:bd:65:21:14:aa:27:56:9b:d3:fa:
         3d:bd:68:47:2f:69:c3:1a:b5:0c:a1:72:34:dc:37:ac:f2:e4:
         07:f3:44:69:2e:38:0c:48:af:9e:13:97:51:00:42:11:9a:2d:
         6b:80:98:38
-----BEGIN CERTIFICATE-----
MIIEjjCCA3agAwIBAgIBATANBgkqhkiG9w0BAQUFADCBkDELMAkGA1UEBhMCRlIx
FzAVBgNVBAgMDlNlaW5lLWV0LU1hcm5lMQ4wDAYDVQQHDAVNZWx1bjEUMBIGA1UE
CgwLQ2FudGJyZWFraXQxGTAXBgNVBAMMEHd3dy5zZW1lc3RyZTMuZnIxJzAlBgkq
hkiG9w0BCQEWGHNlbWVzdHJlM0BjYW50YnJlYWtpdC5mcjAeFw0xNjEwMTYxMzEw
NTRaFw0xNzEwMTYxMzEwNTRaMIGIMQswCQYDVQQGEwJGUjEXMBUGA1UECAwOU2Vp
bmUtZXQtTWFybmUxDjAMBgNVBAcMBU1lbHVuMRQwEgYDVQQKDAtDYW50YnJlYWtp
dDEVMBMGA1UEAwwMd3d3LnRlc3QxLmZyMSMwIQYJKoZIhvcNAQkBFhR0ZXN0MUBj
YW50YnJlYWtpdC5mcjCBnzANBgkqhkiG9w0BAQEFAAOBjQAwgYkCgYEA2La6KLIQ
G5+CVjXqQkVV5wrZlDdlLttnfOjDqS3wyuuJN+CMZywGEzTRlIKcWnZkoMbzucSL
GVS3NOc5n7abnZqa6m1ZDeWdJRa61jwE1pXjou2rKxKZSoCRCw00UbL96WE12PXw
1/jfcVuPsb3ieYl23IwALIR3M7K78PdBovcCAwEAAaOCAXswggF3MCUGCWCGSAGG
+EIBDQQYFhZDZXJ0aWZpY2F0IFNlcnZldXIgU1NMMB0GA1UdDgQWBBSxPNt03wMV
VbtrXnBP1xDiR4rgtzCBqwYDVR0jBIGjMIGggBSGqph5ODnLfCLVCmbeyDBkEfxn
aKGBhKSBgTB/MQswCQYDVQQGEwJGUjEWMBQGA1UECAwNSWxlLWRlLUZyYW5jZTEP
MA0GA1UEBwwGR3JpZ255MRQwEgYDVQQKDAtDYW50YnJlYWtpdDEUMBIGA1UEAwwL
d3d3LnJvb3QuZnIxGzAZBgkqhkiG9w0BCQEWDHJvb3RAbWFpbC5mcoIBAzAJBgNV
HRIEAjAAMDMGA1UdEQQsMCqCEXd3dy53ZWJzZXJ2ZXIuY29tghV3d3cud2Vic2Vy
dmVyLWJpcy5jb20wDAYDVR0TAQH/BAIwADALBgNVHQ8EBAMCBeAwEQYJYIZIAYb4
QgEBBAQDAgZAMBMGA1UdJQQMMAoGCCsGAQUFBwMBMA0GCSqGSIb3DQEBBQUAA4IB
AQB5Z9NCR8szMugP32sPqY1A3muP89EPB3iTMutyM/Ht6+WeaYbuHNFpIARfZDMd
I6TtU9s2B6elzTEp2e7F4eVssEsU2m+QoKwwvA+holtMJkwxgvmZcDLcW4TpNU+i
5R9kN2Ms2VLGzXh3gHyJKn8azCBaOSS9LZbOCusebX2u3Yb5oKC7a13SoQLTC9CF
9T8A6z9VQNysT05Ffxxo/rVeDJqKHnWMJoRmtZQu7JgocG7a96ukYjfPn9NwiInP
QzbmfIsaNCen0So28q6C7L1lIRSqJ1ab0/o9vWhHL2nDGrUMoXI03Des8uQH80Rp
LjgMSK+eE5dRAEIRmi1rgJg4
-----END CERTIFICATE-----
