-----BEGIN CERTIFICATE-----
MIIElzCCA3+gAwIBAgIJALPYNAbvCt34MA0GCSqGSIb3DQEBCwUAMH8xCzAJBgNV
BAYTAkZSMRYwFAYDVQQIDA1JbGUtZGUtRnJhbmNlMQ8wDQYDVQQHDAZHcmlnbnkx
FDASBgNVBAoMC0NhbnRicmVha2l0MRQwEgYDVQQDDAt3d3cucm9vdC5mcjEbMBkG
CSqGSIb3DQEJARYMcm9vdEBtYWlsLmZyMB4XDTE2MTAxMTA4MTMzOFoXDTE2MTEx
MDA4MTMzOFowfzELMAkGA1UEBhMCRlIxFjAUBgNVBAgMDUlsZS1kZS1GcmFuY2Ux
DzANBgNVBAcMBkdyaWdueTEUMBIGA1UECgwLQ2FudGJyZWFraXQxFDASBgNVBAMM
C3d3dy5yb290LmZyMRswGQYJKoZIhvcNAQkBFgxyb290QG1haWwuZnIwggEiMA0G
CSqGSIb3DQEBAQUAA4IBDwAwggEKAoIBAQCoMAMF+L1mfCMxfH6QOc/LIyQIjVXY
CDBRF3ZbB950StB63t4cQs5yPNcTNOx01HkMYK3RriGTTQ3CxCly9sEYz2dckQx/
k29rgLO5xu7mCPL3lsHTnJtG6bdu+tiSps+xon/FBRmW1Alppa40QYifRm6/9kbq
sU/0rkwz8VVPTIBt8uawMTDPLPRF/pWFKQqGMGJGWtmqlHIdqwl8Ry6dojn2Hfie
2W/Ri6ms/JDApDsIep+8E5Di2l/shBYp6UjUtEbU554ueUIEVxM53Gw7I4uWFB7T
iIxzD7okGDBLbqRynj0r/q7dlIMpqhO09maA6kELAf7RezfEbK25x93lAgMBAAGj
ggEUMIIBEDAYBglghkgBhvhCAQ0ECxYJQ0EgUmFjaW5lMB0GA1UdDgQWBBQwPHee
6JUe+BrzPpqzgDtORnMCBDCBswYDVR0jBIGrMIGogBQwPHee6JUe+BrzPpqzgDtO
RnMCBKGBhKSBgTB/MQswCQYDVQQGEwJGUjEWMBQGA1UECAwNSWxlLWRlLUZyYW5j
ZTEPMA0GA1UEBwwGR3JpZ255MRQwEgYDVQQKDAtDYW50YnJlYWtpdDEUMBIGA1UE
AwwLd3d3LnJvb3QuZnIxGzAZBgkqhkiG9w0BCQEWDHJvb3RAbWFpbC5mcoIJALPY
NAbvCt34MBIGA1UdEwEB/wQIMAYBAf8CAQEwCwYDVR0PBAQDAgEGMA0GCSqGSIb3
DQEBCwUAA4IBAQAgnjZ+UHsHXjIaBszNpO6v6FKW8vCfI643i9KV8H23iQuhDWfD
jAdIvGIH2a8xdlcul0QHMCii6s+9pE61VKzBW//oazXh6Z1EmUTP2UTrgXZ08g8D
tEX8iqvMU8HE/zEZPHPH6gI6FcxGQu/NLJf49H8u0legl16X71SzwMUQA3/Hy9qB
dSd4pmNyt1tV57DNAYFjfEhpbl8cFFuyvGJPsIZ/NwMA6baAjsZ3EDxGvaO9Qtqd
H2jY9G2DntZGKDzrmTbCMLjxQa3eR7WVCgebQVHLKn5nrT9cmxcdqNtdLDCe4qmq
Dt4hDyuFsWedTf7VqqZvdRDif78pZFu+lT9v
-----END CERTIFICATE-----
Certificate:
    Data:
        Version: 3 (0x2)
        Serial Number: 5 (0x5)
    Signature Algorithm: sha1WithRSAEncryption
        Issuer: C=FR, ST=Ile-de-France, L=Grigny, O=Cantbreakit, CN=www.root.fr/emailAddress=root@mail.fr
        Validity
            Not Before: Oct 18 07:44:47 2016 GMT
            Not After : Oct 18 07:44:47 2017 GMT
        Subject: C=CI, ST=R\xC3\x83\xC2\xA9gion-des-Ca\xC3\x83\xC2\xAFmans, L=Yamoussoukro, O=Cantbreakit, CN=www.hassane.fr/emailAddress=hassane@cantbreakit.fr
        Subject Public Key Info:
            Public Key Algorithm: rsaEncryption
                Public-Key: (2048 bit)
                Modulus:
                    00:ae:a5:d4:05:65:ad:18:26:57:2f:22:47:1f:00:
                    32:41:54:2f:bf:11:fc:0e:78:2b:13:fa:6d:6e:7d:
                    9d:25:d4:1c:bf:b9:a1:e3:4c:96:b8:52:30:63:52:
                    6f:2c:f2:b5:b1:12:9b:20:bc:23:8a:eb:b6:50:24:
                    68:d7:96:4d:91:62:e4:5b:5b:31:8b:f4:eb:08:f5:
                    6f:6a:5b:bb:73:e0:85:4e:c7:49:4a:14:19:fa:50:
                    6c:20:fe:6b:47:6a:96:f6:ef:08:2f:3a:d8:d6:30:
                    fa:10:c0:92:bd:d3:f7:49:f0:a8:d5:f0:4d:34:f4:
                    b1:6b:80:5e:00:fc:6b:11:18:86:5d:59:11:4f:fd:
                    f4:d1:1e:74:da:3d:1a:92:2e:67:94:4c:5b:4b:b6:
                    60:a9:4d:28:d3:de:5a:a3:21:27:9c:bc:ae:49:72:
                    b3:1f:ae:94:c4:8a:b3:c9:e8:63:10:bc:be:b2:a4:
                    56:64:ba:37:3c:f8:ef:01:56:f9:02:b5:69:80:6f:
                    cc:ac:05:da:2f:62:69:3e:96:7a:72:a3:0a:72:4c:
                    64:5a:70:9e:5a:ba:10:73:46:90:71:02:92:06:9e:
                    d3:d6:d0:28:e8:26:ea:28:e8:31:be:51:15:06:46:
                    2d:26:a1:bb:d7:5c:f2:eb:00:06:e0:fe:d1:a5:b4:
                    0d:3d
                Exponent: 65537 (0x10001)
        X509v3 extensions:
            Netscape Comment: 
                CA SSL
            X509v3 Basic Constraints: critical
                CA:TRUE, pathlen:0
            X509v3 Subject Key Identifier: 
                93:4F:FB:0B:E5:49:93:E9:89:22:E8:80:89:2A:E2:50:E5:A4:F5:12
            X509v3 Authority Key Identifier: 
                keyid:30:3C:77:9E:E8:95:1E:F8:1A:F3:3E:9A:B3:80:3B:4E:46:73:02:04
                DirName:/C=FR/ST=Ile-de-France/L=Grigny/O=Cantbreakit/CN=www.root.fr/emailAddress=root@mail.fr
                serial:B3:D8:34:06:EF:0A:DD:F8

            X509v3 Issuer Alternative Name: 
                <EMPTY>

            X509v3 Key Usage: 
                Certificate Sign, CRL Sign
            Netscape Cert Type: 
                SSL CA
    Signature Algorithm: sha1WithRSAEncryption
         3e:1b:ed:bd:30:f1:c7:ea:a4:1c:4b:ff:a7:03:ff:59:89:8b:
         88:ec:80:69:a8:77:94:76:47:34:73:4f:6b:44:cf:8a:cb:68:
         f9:fe:b3:00:41:8b:1b:70:a7:8d:f2:b4:22:24:cf:85:6d:b7:
         74:8b:a3:74:3a:da:6f:c6:5a:4e:be:41:33:e1:0e:21:b7:a2:
         22:74:85:e3:2f:35:a2:72:74:10:92:b5:06:c7:25:68:46:eb:
         60:9e:1e:93:c4:43:d0:b4:ea:57:24:50:1d:9f:8e:9a:91:77:
         fe:73:77:d4:8e:e7:b3:48:d2:79:e8:a5:50:cd:06:e2:d8:dc:
         f4:41:2c:d0:d6:86:56:eb:84:c8:16:2f:51:74:29:e3:28:33:
         e7:f9:14:20:08:b6:53:26:cf:27:7e:a2:4b:bf:c3:43:40:1f:
         75:bc:9a:17:6c:8a:7f:36:57:48:21:ee:75:78:c3:cf:59:48:
         3a:a5:8a:37:bd:51:af:a3:c6:a2:2d:39:34:3a:36:d2:47:98:
         f1:f6:5b:9d:77:be:6c:19:77:cd:9b:7f:56:ee:8c:d9:91:a2:
         e0:01:13:b5:a7:ce:26:0d:ed:3c:94:17:f7:ca:5b:56:60:3d:
         73:54:d8:4a:aa:8e:8e:de:4f:51:e4:86:8d:a2:29:0a:34:b8:
         17:48:1d:ce
-----BEGIN CERTIFICATE-----
MIIEyTCCA7GgAwIBAgIBBTANBgkqhkiG9w0BAQUFADB/MQswCQYDVQQGEwJGUjEW
MBQGA1UECAwNSWxlLWRlLUZyYW5jZTEPMA0GA1UEBwwGR3JpZ255MRQwEgYDVQQK
DAtDYW50YnJlYWtpdDEUMBIGA1UEAwwLd3d3LnJvb3QuZnIxGzAZBgkqhkiG9w0B
CQEWDHJvb3RAbWFpbC5mcjAeFw0xNjEwMTgwNzQ0NDdaFw0xNzEwMTgwNzQ0NDda
MIGdMQswCQYDVQQGEwJDSTEhMB8GA1UECAwYUsODwqlnaW9uLWRlcy1DYcODwq9t
YW5zMRUwEwYDVQQHDAxZYW1vdXNzb3Vrcm8xFDASBgNVBAoMC0NhbnRicmVha2l0
MRcwFQYDVQQDDA53d3cuaGFzc2FuZS5mcjElMCMGCSqGSIb3DQEJARYWaGFzc2Fu
ZUBjYW50YnJlYWtpdC5mcjCCASIwDQYJKoZIhvcNAQEBBQADggEPADCCAQoCggEB
AK6l1AVlrRgmVy8iRx8AMkFUL78R/A54KxP6bW59nSXUHL+5oeNMlrhSMGNSbyzy
tbESmyC8I4rrtlAkaNeWTZFi5FtbMYv06wj1b2pbu3PghU7HSUoUGfpQbCD+a0dq
lvbvCC862NYw+hDAkr3T90nwqNXwTTT0sWuAXgD8axEYhl1ZEU/99NEedNo9GpIu
Z5RMW0u2YKlNKNPeWqMhJ5y8rklysx+ulMSKs8noYxC8vrKkVmS6Nzz47wFW+QK1
aYBvzKwF2i9iaT6WenKjCnJMZFpwnlq6EHNGkHECkgae09bQKOgm6ijoMb5RFQZG
LSahu9dc8usABuD+0aW0DT0CAwEAAaOCAS8wggErMBUGCWCGSAGG+EIBDQQIFgZD
QSBTU0wwEgYDVR0TAQH/BAgwBgEB/wIBADAdBgNVHQ4EFgQUk0/7C+VJk+mJIuiA
iSriUOWk9RIwgbMGA1UdIwSBqzCBqIAUMDx3nuiVHvga8z6as4A7TkZzAgShgYSk
gYEwfzELMAkGA1UEBhMCRlIxFjAUBgNVBAgMDUlsZS1kZS1GcmFuY2UxDzANBgNV
BAcMBkdyaWdueTEUMBIGA1UECgwLQ2FudGJyZWFraXQxFDASBgNVBAMMC3d3dy5y
b290LmZyMRswGQYJKoZIhvcNAQkBFgxyb290QG1haWwuZnKCCQCz2DQG7wrd+DAJ
BgNVHRIEAjAAMAsGA1UdDwQEAwIBBjARBglghkgBhvhCAQEEBAMCAgQwDQYJKoZI
hvcNAQEFBQADggEBAD4b7b0w8cfqpBxL/6cD/1mJi4jsgGmod5R2RzRzT2tEz4rL
aPn+swBBixtwp43ytCIkz4Vtt3SLo3Q62m/GWk6+QTPhDiG3oiJ0heMvNaJydBCS
tQbHJWhG62CeHpPEQ9C06lckUB2fjpqRd/5zd9SO57NI0nnopVDNBuLY3PRBLNDW
hlbrhMgWL1F0KeMoM+f5FCAItlMmzyd+oku/w0NAH3W8mhdsin82V0gh7nV4w89Z
SDqlije9Ua+jxqItOTQ6NtJHmPH2W513vmwZd82bf1bujNmRouABE7WnziYN7TyU
F/fKW1ZgPXNU2Eqqjo7eT1Hkho2iKQo0uBdIHc4=
-----END CERTIFICATE-----
