Certificate:
    Data:
        Version: 3 (0x2)
        Serial Number: 4 (0x4)
    Signature Algorithm: sha1WithRSAEncryption
        Issuer: C=FR, ST=Ile-de-France, L=Grigny, O=Cantbreakit, CN=www.root.fr/emailAddress=root@mail.fr
        Validity
            Not Before: Oct 16 17:29:24 2016 GMT
            Not After : Oct 16 17:29:24 2017 GMT
        Subject: C=CI, ST=Lagune, L=San-Pedro, O=Cantbreakit, CN=semestre3/emailAddress=semestre3@cantbreakit.fr
        Subject Public Key Info:
            Public Key Algorithm: rsaEncryption
                Public-Key: (2048 bit)
                Modulus:
                    00:c9:b9:22:0e:a1:60:a2:a7:2f:c3:d6:7b:57:2b:
                    73:5c:e6:f3:83:2b:d6:02:11:2f:bb:f0:8b:a6:a1:
                    07:e3:b2:84:c5:ef:e1:43:49:b2:fe:fa:00:23:98:
                    bd:19:ef:76:11:c7:24:be:57:aa:c3:28:9d:8f:16:
                    50:2a:e7:e7:2d:be:f4:04:2f:eb:26:bf:ce:7b:57:
                    0d:ef:a3:92:b9:28:e9:70:65:d9:99:6c:d5:56:ba:
                    cb:ae:60:d5:e5:93:ca:fd:af:20:e8:48:13:0e:cc:
                    6a:d1:4c:f9:0c:cf:0e:7f:9f:14:e3:4d:13:46:a3:
                    c4:22:7d:58:4a:b9:8a:37:2c:1b:c0:53:8e:96:fe:
                    e2:f9:97:fd:0a:c2:5d:f3:86:5f:25:0e:5c:cb:1f:
                    a9:9e:ee:8e:55:8f:f7:2c:fa:a7:b5:86:fe:d3:6d:
                    08:db:fa:30:c3:81:32:43:d1:51:6e:1d:e1:f5:f4:
                    f7:6f:60:18:c3:2b:da:10:b9:3c:d1:6e:11:15:4a:
                    85:93:e4:4d:d5:a7:a5:01:e2:b0:cb:5a:57:33:58:
                    96:a4:2c:8b:c5:d9:b8:fb:7e:73:93:6f:63:29:dd:
                    fc:07:27:c6:53:7b:0e:c3:57:e2:86:1f:17:84:1d:
                    96:0d:e3:96:70:10:9f:0b:5c:83:d1:d5:f9:4e:eb:
                    2a:35
                Exponent: 65537 (0x10001)
        X509v3 extensions:
            Netscape Comment: 
                CA SSL
            X509v3 Basic Constraints: critical
                CA:TRUE, pathlen:0
            X509v3 Subject Key Identifier: 
                B0:4D:40:74:20:69:5A:97:73:AB:3A:A5:D3:A6:6E:EB:56:0E:9A:EE
            X509v3 Authority Key Identifier: 
                keyid:30:3C:77:9E:E8:95:1E:F8:1A:F3:3E:9A:B3:80:3B:4E:46:73:02:04
                DirName:/C=FR/ST=Ile-de-France/L=Grigny/O=Cantbreakit/CN=www.root.fr/emailAddress=root@mail.fr
                serial:B3:D8:34:06:EF:0A:DD:F8

            X509v3 Issuer Alternative Name: 
                <EMPTY>

            X509v3 Key Usage: 
                Certificate Sign, CRL Sign
            Netscape Cert Type: 
                SSL CA
    Signature Algorithm: sha1WithRSAEncryption
         55:b9:21:0b:24:a8:48:b2:e6:62:69:9a:6d:f4:a9:2a:1d:99:
         37:d5:09:24:59:ee:54:ab:ad:7f:65:77:fb:8f:81:c3:1f:fd:
         63:9d:d0:a6:4f:17:0e:42:89:f6:00:da:c0:f3:13:fd:87:b6:
         6b:3f:83:ef:0c:aa:53:bf:95:ac:bb:e1:fe:33:4a:31:92:83:
         71:9b:d8:39:9d:05:e1:9e:4b:08:1b:c8:7e:ec:56:e6:69:77:
         df:67:83:a7:fb:eb:2f:c0:35:d2:31:4f:b5:67:4f:c4:45:1f:
         0d:dd:56:df:22:72:bc:ef:49:8a:09:74:62:16:b5:c6:87:0b:
         4f:52:c5:8d:10:6f:f1:5e:8a:a0:a6:96:57:58:5f:4c:55:30:
         9e:0a:da:44:18:8f:e9:c6:43:14:63:c3:62:87:a1:79:5c:22:
         53:4d:0e:1b:02:74:be:56:23:9c:97:2f:65:d4:1d:a5:95:9f:
         46:48:9e:c4:5c:30:ba:89:44:57:3c:7b:60:8c:61:3a:bc:7c:
         b2:d8:11:05:2d:f9:a0:05:2f:7c:40:8a:e9:cd:c9:13:ad:16:
         e1:aa:e7:ca:02:1c:3c:86:f8:3d:29:d1:b7:e1:63:b7:c7:18:
         6d:08:56:15:98:8f:59:cd:5f:0b:f4:e4:a6:1d:03:ec:ee:86:
         a8:60:36:66
-----BEGIN CERTIFICATE-----
MIIEsTCCA5mgAwIBAgIBBDANBgkqhkiG9w0BAQUFADB/MQswCQYDVQQGEwJGUjEW
MBQGA1UECAwNSWxlLWRlLUZyYW5jZTEPMA0GA1UEBwwGR3JpZ255MRQwEgYDVQQK
DAtDYW50YnJlYWtpdDEUMBIGA1UEAwwLd3d3LnJvb3QuZnIxGzAZBgkqhkiG9w0B
CQEWDHJvb3RAbWFpbC5mcjAeFw0xNjEwMTYxNzI5MjRaFw0xNzEwMTYxNzI5MjRa
MIGFMQswCQYDVQQGEwJDSTEPMA0GA1UECAwGTGFndW5lMRIwEAYDVQQHDAlTYW4t
UGVkcm8xFDASBgNVBAoMC0NhbnRicmVha2l0MRIwEAYDVQQDDAlzZW1lc3RyZTMx
JzAlBgkqhkiG9w0BCQEWGHNlbWVzdHJlM0BjYW50YnJlYWtpdC5mcjCCASIwDQYJ
KoZIhvcNAQEBBQADggEPADCCAQoCggEBAMm5Ig6hYKKnL8PWe1crc1zm84Mr1gIR
L7vwi6ahB+OyhMXv4UNJsv76ACOYvRnvdhHHJL5XqsMonY8WUCrn5y2+9AQv6ya/
zntXDe+jkrko6XBl2Zls1Va6y65g1eWTyv2vIOhIEw7MatFM+QzPDn+fFONNE0aj
xCJ9WEq5ijcsG8BTjpb+4vmX/QrCXfOGXyUOXMsfqZ7ujlWP9yz6p7WG/tNtCNv6
MMOBMkPRUW4d4fX0929gGMMr2hC5PNFuERVKhZPkTdWnpQHisMtaVzNYlqQsi8XZ
uPt+c5NvYynd/AcnxlN7DsNX4oYfF4Qdlg3jlnAQnwtcg9HV+U7rKjUCAwEAAaOC
AS8wggErMBUGCWCGSAGG+EIBDQQIFgZDQSBTU0wwEgYDVR0TAQH/BAgwBgEB/wIB
ADAdBgNVHQ4EFgQUsE1AdCBpWpdzqzql06Zu61YOmu4wgbMGA1UdIwSBqzCBqIAU
MDx3nuiVHvga8z6as4A7TkZzAgShgYSkgYEwfzELMAkGA1UEBhMCRlIxFjAUBgNV
BAgMDUlsZS1kZS1GcmFuY2UxDzANBgNVBAcMBkdyaWdueTEUMBIGA1UECgwLQ2Fu
dGJyZWFraXQxFDASBgNVBAMMC3d3dy5yb290LmZyMRswGQYJKoZIhvcNAQkBFgxy
b290QG1haWwuZnKCCQCz2DQG7wrd+DAJBgNVHRIEAjAAMAsGA1UdDwQEAwIBBjAR
BglghkgBhvhCAQEEBAMCAgQwDQYJKoZIhvcNAQEFBQADggEBAFW5IQskqEiy5mJp
mm30qSodmTfVCSRZ7lSrrX9ld/uPgcMf/WOd0KZPFw5CifYA2sDzE/2Htms/g+8M
qlO/lay74f4zSjGSg3Gb2DmdBeGeSwgbyH7sVuZpd99ng6f76y/ANdIxT7VnT8RF
Hw3dVt8icrzvSYoJdGIWtcaHC09SxY0Qb/FeiqCmlldYX0xVMJ4K2kQYj+nGQxRj
w2KHoXlcIlNNDhsCdL5WI5yXL2XUHaWVn0ZInsRcMLqJRFc8e2CMYTq8fLLYEQUt
+aAFL3xAiunNyROtFuGq58oCHDyG+D0p0bfhY7fHGG0IVhWYj1nNXwv05KYdA+zu
hqhgNmY=
-----END CERTIFICATE-----
