Certificate:
    Data:
        Version: 3 (0x2)
        Serial Number: 2 (0x2)
    Signature Algorithm: sha1WithRSAEncryption
        Issuer: C=FR, ST=Essonne, L=Juvisy, O=Cantbreakit, CN=www.semestre2.fr/emailAddress=semestre2@mail.fr
        Validity
            Not Before: Oct 16 13:20:59 2016 GMT
            Not After : Oct 16 13:20:59 2017 GMT
        Subject: C=FR, ST=Essonne, L=Juvisy, O=Cantbreakit, CN=hascko/emailAddress=hascko@cantbreakit.fr
        Subject Public Key Info:
            Public Key Algorithm: rsaEncryption
                Public-Key: (1024 bit)
                Modulus:
                    00:e1:9b:b9:a1:4f:6e:72:96:f7:a3:1c:b7:59:4c:
                    a4:85:87:63:85:24:4c:8a:58:5e:63:d0:15:0d:ee:
                    9b:b8:5c:7d:f9:67:b1:00:1a:ef:b4:a7:1f:fa:b7:
                    47:d4:aa:49:bd:ad:1b:8d:e0:93:b4:3a:cd:79:47:
                    f2:4a:e0:86:55:a7:ee:0a:9f:55:d2:e2:fc:15:e7:
                    f9:60:02:dd:38:a2:f8:00:b8:3f:8a:ec:4b:96:2f:
                    28:f2:28:b7:c0:be:ff:08:78:7d:a8:6a:f2:49:e4:
                    01:8b:47:8f:0d:15:f2:e2:94:52:53:c3:e4:dc:25:
                    ce:7f:6d:96:e4:a5:c1:95:ab
                Exponent: 65537 (0x10001)
        X509v3 extensions:
            Netscape Comment: 
                Certificat Serveur SSL
            X509v3 Subject Key Identifier: 
                07:E8:C6:F6:7E:D5:93:1D:03:7B:C1:6F:BA:89:9A:47:B4:5D:36:46
            X509v3 Authority Key Identifier: 
                keyid:7D:D9:08:E2:B3:9F:A8:A8:66:3E:88:D1:FF:D1:26:A2:06:2A:3E:FA
                DirName:/C=FR/ST=Ile-de-France/L=Grigny/O=Cantbreakit/CN=www.root.fr/emailAddress=root@mail.fr
                serial:02

            X509v3 Issuer Alternative Name: 
                <EMPTY>

            X509v3 Subject Alternative Name: 
                DNS:www.webserver.com, DNS:www.webserver-bis.com
            X509v3 Basic Constraints: critical
                CA:FALSE
            X509v3 Key Usage: 
                Digital Signature, Non Repudiation, Key Encipherment
            Netscape Cert Type: 
                SSL Server
            X509v3 Extended Key Usage: 
                TLS Web Server Authentication
    Signature Algorithm: sha1WithRSAEncryption
         25:1b:c7:13:e0:80:34:e1:bf:65:a9:27:0f:34:eb:7c:cc:c7:
         d0:5d:85:4b:be:c6:8d:67:9e:d5:e3:73:61:67:ad:a6:30:d2:
         c5:13:f9:71:2d:c8:ac:7f:1e:25:ba:04:32:56:c9:bb:e9:0a:
         4a:f5:88:c7:71:79:7b:0f:8f:9b:df:c5:64:fd:b0:c3:b3:6b:
         07:d9:79:cf:43:02:0a:29:0f:22:d9:5a:1b:c4:8b:bb:32:35:
         5e:81:52:f2:d5:57:ff:36:a2:84:b9:5d:10:a7:d9:12:92:07:
         74:c2:09:a1:20:03:ac:ec:a4:10:8b:37:93:8b:9b:43:86:15:
         a9:93:d7:33:64:a9:fb:36:d5:c4:ea:3e:ac:65:82:69:25:20:
         72:7c:2a:48:cd:33:b8:60:ff:79:cc:34:08:0a:68:de:e2:db:
         77:15:24:b5:7d:81:62:17:a1:4d:aa:f8:ba:46:45:c5:33:f8:
         18:9a:89:09:92:5a:9e:81:77:47:9c:a3:e7:dd:e0:5d:72:e9:
         10:46:d0:74:c7:59:b5:24:98:43:76:f1:4c:79:8f:4c:84:2f:
         d4:5b:6f:bf:53:44:0d:46:6c:71:13:41:4e:73:94:14:1c:0a:
         21:56:4d:6f:44:a4:c4:c1:9c:f3:35:6e:d0:97:05:1a:cc:9b:
         2f:2f:52:b8
-----BEGIN CERTIFICATE-----
MIIEdTCCA12gAwIBAgIBAjANBgkqhkiG9w0BAQUFADCBgzELMAkGA1UEBhMCRlIx
EDAOBgNVBAgMB0Vzc29ubmUxDzANBgNVBAcMBkp1dmlzeTEUMBIGA1UECgwLQ2Fu
dGJyZWFraXQxGTAXBgNVBAMMEHd3dy5zZW1lc3RyZTIuZnIxIDAeBgkqhkiG9w0B
CQEWEXNlbWVzdHJlMkBtYWlsLmZyMB4XDTE2MTAxNjEzMjA1OVoXDTE3MTAxNjEz
MjA1OVowfTELMAkGA1UEBhMCRlIxEDAOBgNVBAgMB0Vzc29ubmUxDzANBgNVBAcM
Bkp1dmlzeTEUMBIGA1UECgwLQ2FudGJyZWFraXQxDzANBgNVBAMMBmhhc2NrbzEk
MCIGCSqGSIb3DQEJARYVaGFzY2tvQGNhbnRicmVha2l0LmZyMIGfMA0GCSqGSIb3
DQEBAQUAA4GNADCBiQKBgQDhm7mhT25ylvejHLdZTKSFh2OFJEyKWF5j0BUN7pu4
XH35Z7EAGu+0px/6t0fUqkm9rRuN4JO0Os15R/JK4IZVp+4Kn1XS4vwV5/lgAt04
ovgAuD+K7EuWLyjyKLfAvv8IeH2oavJJ5AGLR48NFfLilFJTw+TcJc5/bZbkpcGV
qwIDAQABo4IBezCCAXcwJQYJYIZIAYb4QgENBBgWFkNlcnRpZmljYXQgU2VydmV1
ciBTU0wwHQYDVR0OBBYEFAfoxvZ+1ZMdA3vBb7qJmke0XTZGMIGrBgNVHSMEgaMw
gaCAFH3ZCOKzn6ioZj6I0f/RJqIGKj76oYGEpIGBMH8xCzAJBgNVBAYTAkZSMRYw
FAYDVQQIDA1JbGUtZGUtRnJhbmNlMQ8wDQYDVQQHDAZHcmlnbnkxFDASBgNVBAoM
C0NhbnRicmVha2l0MRQwEgYDVQQDDAt3d3cucm9vdC5mcjEbMBkGCSqGSIb3DQEJ
ARYMcm9vdEBtYWlsLmZyggECMAkGA1UdEgQCMAAwMwYDVR0RBCwwKoIRd3d3Lndl
YnNlcnZlci5jb22CFXd3dy53ZWJzZXJ2ZXItYmlzLmNvbTAMBgNVHRMBAf8EAjAA
MAsGA1UdDwQEAwIF4DARBglghkgBhvhCAQEEBAMCBkAwEwYDVR0lBAwwCgYIKwYB
BQUHAwEwDQYJKoZIhvcNAQEFBQADggEBACUbxxPggDThv2WpJw8063zMx9BdhUu+
xo1nntXjc2FnraYw0sUT+XEtyKx/HiW6BDJWybvpCkr1iMdxeXsPj5vfxWT9sMOz
awfZec9DAgopDyLZWhvEi7syNV6BUvLVV/82ooS5XRCn2RKSB3TCCaEgA6zspBCL
N5OLm0OGFamT1zNkqfs21cTqPqxlgmklIHJ8KkjNM7hg/3nMNAgKaN7i23cVJLV9
gWIXoU2q+LpGRcUz+BiaiQmSWp6Bd0eco+fd4F1y6RBG0HTHWbUkmEN28Ux5j0yE
L9Rbb79TRA1GbHETQU5zlBQcCiFWTW9EpMTBnPM1btCXBRrMmy8vUrg=
-----END CERTIFICATE-----
