Certificate:
    Data:
        Version: 3 (0x2)
        Serial Number: 2 (0x2)
    Signature Algorithm: sha256WithRSAEncryption
        Issuer: C=FR, ST=IL, L=Ivry-sur-Seine, O=Cantbreakit, OU=security, CN=Cantbreakit CA/name=MyVPN/emailAddress=root@cantbreakit.fr
        Validity
            Not Before: Oct 18 07:19:20 2016 GMT
            Not After : Oct 16 07:19:20 2026 GMT
        Subject: C=FR, ST=IL, L=Ivry-sur-Seine, O=Cantbreakit, OU=security, CN=client1/name=MyVPN/emailAddress=client1@cantbreakit.fr
        Subject Public Key Info:
            Public Key Algorithm: rsaEncryption
                Public-Key: (2048 bit)
                Modulus:
                    00:a6:89:91:5f:3d:70:90:ce:fc:02:ef:19:e4:15:
                    0e:55:84:a5:e0:53:e6:6d:51:ff:da:65:b0:5b:7e:
                    54:22:26:56:47:42:19:51:4d:fb:c7:f2:9b:c5:88:
                    3a:a9:80:26:15:5a:b5:c0:1a:27:51:11:68:8d:f4:
                    d4:94:ae:98:87:4d:3a:8b:aa:6a:5d:5f:2d:cf:a2:
                    b6:95:25:44:f2:5a:f7:04:96:b2:0d:a3:57:c6:c7:
                    2d:e3:c4:ab:45:0b:d3:da:dc:5d:48:d6:8a:2b:e5:
                    64:8d:a1:37:38:f9:8b:a9:be:86:6c:8d:f2:77:5d:
                    6d:22:60:30:78:9d:29:63:b4:d0:89:d2:9d:b0:a3:
                    8d:09:df:0e:d2:02:99:d4:fa:23:d5:1f:db:69:09:
                    f9:1a:bc:41:64:f1:85:f1:97:87:2d:07:80:e9:78:
                    dd:35:3c:24:e3:f2:af:af:82:3f:2a:81:f5:d9:76:
                    b3:86:96:b2:ea:7d:aa:f9:9b:f3:9e:e4:27:41:a6:
                    5a:7b:2d:1b:8c:4a:f2:75:5c:f4:8d:11:4c:c0:5a:
                    05:e6:8b:c2:fd:d8:d8:4d:48:12:8b:ab:00:06:8d:
                    b9:e2:f2:3d:5e:42:50:fc:f4:79:59:76:b3:74:7a:
                    22:ba:0a:a3:0d:73:e2:4c:12:9b:54:68:b9:e2:e2:
                    6a:7d
                Exponent: 65537 (0x10001)
        X509v3 extensions:
            X509v3 Basic Constraints: 
                CA:FALSE
            Netscape Comment: 
                Easy-RSA Generated Certificate
            X509v3 Subject Key Identifier: 
                D9:6E:0F:18:9E:CB:33:28:9A:D1:57:54:70:16:FE:70:4A:25:BD:45
            X509v3 Authority Key Identifier: 
                keyid:AC:B5:A4:05:4F:34:1B:0C:97:14:F7:F8:0F:E4:D9:08:66:3C:D3:0C
                DirName:/C=FR/ST=IL/L=Ivry-sur-Seine/O=Cantbreakit/OU=security/CN=Cantbreakit CA/name=MyVPN/emailAddress=root@cantbreakit.fr
                serial:D7:3A:2A:90:3D:C8:52:2F

            X509v3 Extended Key Usage: 
                TLS Web Client Authentication
            X509v3 Key Usage: 
                Digital Signature
            X509v3 Subject Alternative Name: 
                DNS:client1
    Signature Algorithm: sha256WithRSAEncryption
         6f:14:6b:c9:d8:85:6a:2e:c1:3c:33:02:e7:73:33:ab:6c:06:
         f6:15:b2:3a:48:9b:de:19:d4:62:a0:0a:a7:9f:e9:f3:ba:d7:
         7e:50:ee:b0:2c:7a:2e:90:02:1e:1f:75:a1:78:89:24:c6:3f:
         09:4b:63:b8:fa:d2:80:bb:b0:89:c7:39:03:48:73:10:5c:b4:
         0d:2d:c8:e6:be:6d:6d:a6:79:39:77:81:96:d0:c9:6b:2c:28:
         36:0d:ae:fe:6d:45:a6:fc:a5:e4:75:4c:75:af:f2:fc:cb:93:
         76:8c:46:68:9f:f9:2e:11:b2:7e:06:b3:7f:bf:e1:a0:d4:e7:
         6b:0f:ad:6c:1d:29:c3:28:ca:4d:cb:94:7c:4d:25:4a:d8:1e:
         52:a9:d0:e2:0d:a2:3f:27:a7:4c:0f:54:3d:e3:0d:2c:ec:cb:
         8e:b2:41:72:f7:4d:19:87:d6:ef:86:70:ea:dd:d6:3c:f7:2f:
         85:bd:1e:38:20:2b:15:99:14:bb:9c:51:4d:1c:80:d8:b5:90:
         ac:17:c9:e0:85:e7:50:24:29:e7:21:a4:ab:22:33:f4:46:32:
         ce:70:e1:bb:f3:91:dc:4c:f2:de:26:3e:f3:99:4d:56:b0:9d:
         4e:e7:5f:46:aa:8c:24:fe:e4:ee:b4:09:5f:2d:a5:ca:d8:26:
         af:d3:a2:61
-----BEGIN CERTIFICATE-----
MIIFQTCCBCmgAwIBAgIBAjANBgkqhkiG9w0BAQsFADCBqTELMAkGA1UEBhMCRlIx
CzAJBgNVBAgTAklMMRcwFQYDVQQHEw5JdnJ5LXN1ci1TZWluZTEUMBIGA1UEChML
Q2FudGJyZWFraXQxETAPBgNVBAsTCHNlY3VyaXR5MRcwFQYDVQQDEw5DYW50YnJl
YWtpdCBDQTEOMAwGA1UEKRMFTXlWUE4xIjAgBgkqhkiG9w0BCQEWE3Jvb3RAY2Fu
dGJyZWFraXQuZnIwHhcNMTYxMDE4MDcxOTIwWhcNMjYxMDE2MDcxOTIwWjCBpTEL
MAkGA1UEBhMCRlIxCzAJBgNVBAgTAklMMRcwFQYDVQQHEw5JdnJ5LXN1ci1TZWlu
ZTEUMBIGA1UEChMLQ2FudGJyZWFraXQxETAPBgNVBAsTCHNlY3VyaXR5MRAwDgYD
VQQDEwdjbGllbnQxMQ4wDAYDVQQpEwVNeVZQTjElMCMGCSqGSIb3DQEJARYWY2xp
ZW50MUBjYW50YnJlYWtpdC5mcjCCASIwDQYJKoZIhvcNAQEBBQADggEPADCCAQoC
ggEBAKaJkV89cJDO/ALvGeQVDlWEpeBT5m1R/9plsFt+VCImVkdCGVFN+8fym8WI
OqmAJhVatcAaJ1ERaI301JSumIdNOouqal1fLc+itpUlRPJa9wSWsg2jV8bHLePE
q0UL09rcXUjWiivlZI2hNzj5i6m+hmyN8nddbSJgMHidKWO00InSnbCjjQnfDtIC
mdT6I9Uf22kJ+Rq8QWTxhfGXhy0HgOl43TU8JOPyr6+CPyqB9dl2s4aWsup9qvmb
857kJ0GmWnstG4xK8nVc9I0RTMBaBeaLwv3Y2E1IEourAAaNueLyPV5CUPz0eVl2
s3R6IroKow1z4kwSm1RoueLian0CAwEAAaOCAXQwggFwMAkGA1UdEwQCMAAwLQYJ
YIZIAYb4QgENBCAWHkVhc3ktUlNBIEdlbmVyYXRlZCBDZXJ0aWZpY2F0ZTAdBgNV
HQ4EFgQU2W4PGJ7LMyia0VdUcBb+cEolvUUwgd4GA1UdIwSB1jCB04AUrLWkBU80
GwyXFPf4D+TZCGY80wyhga+kgawwgakxCzAJBgNVBAYTAkZSMQswCQYDVQQIEwJJ
TDEXMBUGA1UEBxMOSXZyeS1zdXItU2VpbmUxFDASBgNVBAoTC0NhbnRicmVha2l0
MREwDwYDVQQLEwhzZWN1cml0eTEXMBUGA1UEAxMOQ2FudGJyZWFraXQgQ0ExDjAM
BgNVBCkTBU15VlBOMSIwIAYJKoZIhvcNAQkBFhNyb290QGNhbnRicmVha2l0LmZy
ggkA1zoqkD3IUi8wEwYDVR0lBAwwCgYIKwYBBQUHAwIwCwYDVR0PBAQDAgeAMBIG
A1UdEQQLMAmCB2NsaWVudDEwDQYJKoZIhvcNAQELBQADggEBAG8Ua8nYhWouwTwz
AudzM6tsBvYVsjpIm94Z1GKgCqef6fO6135Q7rAsei6QAh4fdaF4iSTGPwlLY7j6
0oC7sInHOQNIcxBctA0tyOa+bW2meTl3gZbQyWssKDYNrv5tRab8peR1THWv8vzL
k3aMRmif+S4Rsn4Gs3+/4aDU52sPrWwdKcMoyk3LlHxNJUrYHlKp0OINoj8np0wP
VD3jDSzsy46yQXL3TRmH1u+GcOrd1jz3L4W9HjggKxWZFLucUU0cgNi1kKwXyeCF
51AkKechpKsiM/RGMs5w4bvzkdxM8t4mPvOZTVawnU7nX0aqjCT+5O60CV8tpcrY
Jq/TomE=
-----END CERTIFICATE-----
