Certificate:
    Data:
        Version: 3 (0x2)
        Serial Number: 1 (0x1)
    Signature Algorithm: sha256WithRSAEncryption
        Issuer: C=FR, ST=IL, L=Ivry-sur-Seine, O=Cantbreakit, OU=security, CN=Cantbreakit CA/name=MyVPN/emailAddress=root@cantbreakit.fr
        Validity
            Not Before: Oct 18 07:12:22 2016 GMT
            Not After : Oct 16 07:12:22 2026 GMT
        Subject: C=FR, ST=IL, L=Ivry-sur-Seine, O=Cantbreakit, OU=security, CN=server_x509/name=MyVPN/emailAddress=root@cantbreakit.fr
        Subject Public Key Info:
            Public Key Algorithm: rsaEncryption
                Public-Key: (2048 bit)
                Modulus:
                    00:e9:d2:0e:8a:eb:58:d1:4e:9b:79:16:c5:94:7c:
                    3e:66:c8:cd:22:65:cd:3c:49:b5:58:17:c0:b5:ee:
                    1b:04:40:95:e6:0b:c5:d9:6c:e8:1a:d4:1f:2f:b8:
                    b4:e0:b7:02:45:39:28:89:f0:bc:d5:68:fe:5d:d6:
                    a0:47:f5:76:fa:b8:50:85:7f:0a:e4:f0:b1:0c:2e:
                    de:27:dc:7f:20:92:40:f1:2f:f1:91:09:23:d8:1d:
                    db:8d:a7:97:43:95:55:7b:5b:b3:a0:93:d4:5d:43:
                    9a:05:4e:d1:2a:e1:8f:b8:b8:3f:62:a6:24:7a:0c:
                    5a:d4:d8:79:a3:9f:bb:e4:7b:ed:8c:4a:d2:4c:70:
                    23:b1:c4:d1:7f:14:6d:6d:e2:22:5f:9f:fb:ae:bf:
                    da:06:4a:77:53:6c:14:02:7d:3e:c0:b2:f6:ff:aa:
                    c7:d5:10:cb:51:00:7b:75:f5:a2:f1:7a:4e:9c:31:
                    39:4f:11:a3:c3:42:31:25:89:a3:eb:60:f6:9f:1e:
                    d5:56:97:df:75:e8:59:20:d0:94:3b:cd:5e:da:72:
                    d3:1c:60:06:74:d6:c8:a0:fc:f3:9d:42:b5:d2:d9:
                    37:cc:f0:eb:07:01:79:59:f6:22:2a:08:35:c4:cd:
                    32:b1:08:22:32:e0:ed:2e:41:f5:16:25:a1:f9:b7:
                    0c:a9
                Exponent: 65537 (0x10001)
        X509v3 extensions:
            X509v3 Basic Constraints: 
                CA:FALSE
            Netscape Cert Type: 
                SSL Server
            Netscape Comment: 
                Easy-RSA Generated Server Certificate
            X509v3 Subject Key Identifier: 
                90:54:27:18:03:FC:E4:37:45:7E:50:8F:B5:A4:33:21:C1:04:27:8F
            X509v3 Authority Key Identifier: 
                keyid:AC:B5:A4:05:4F:34:1B:0C:97:14:F7:F8:0F:E4:D9:08:66:3C:D3:0C
                DirName:/C=FR/ST=IL/L=Ivry-sur-Seine/O=Cantbreakit/OU=security/CN=Cantbreakit CA/name=MyVPN/emailAddress=root@cantbreakit.fr
                serial:D7:3A:2A:90:3D:C8:52:2F

            X509v3 Extended Key Usage: 
                TLS Web Server Authentication
            X509v3 Key Usage: 
                Digital Signature, Key Encipherment
            X509v3 Subject Alternative Name: 
                DNS:server_x509
    Signature Algorithm: sha256WithRSAEncryption
         b2:52:3f:46:bd:5f:2c:fd:70:c3:f5:49:c7:0c:41:57:76:88:
         8c:a7:58:ba:2b:f5:26:c4:ce:81:44:9a:61:c4:d6:3d:30:2e:
         5a:63:03:51:23:ca:f0:75:48:34:5a:9e:33:e2:6c:73:f9:70:
         07:e1:e2:86:d7:f1:f7:84:2a:9b:b1:a8:03:9e:07:c9:2b:b4:
         a7:f0:7d:a5:53:90:22:01:24:9b:21:b4:53:47:d5:ec:47:fb:
         87:0a:4e:cb:ef:5d:69:c6:2c:57:f0:90:34:18:57:f2:37:b7:
         99:70:fe:37:df:93:86:a2:8b:86:39:54:3c:0e:04:24:66:96:
         6e:e7:4e:cf:fb:5d:8e:11:ed:a7:66:9d:c2:5d:69:a1:49:e0:
         3c:3c:5e:ce:70:13:cd:73:55:59:ed:c1:6c:4c:ff:4d:62:39:
         73:56:a1:25:de:a2:f1:b3:ea:34:af:e2:f3:21:b2:83:9a:ba:
         0a:a9:08:73:76:f2:9f:08:ff:14:f4:04:dd:f6:14:91:13:ce:
         b2:0b:e7:7d:4b:20:c4:a9:02:08:11:7a:2e:83:06:a1:bd:ee:
         21:11:da:a7:2f:d3:e0:46:2a:11:b5:e2:49:1a:eb:23:3f:ea:
         84:19:83:f1:ca:38:f2:94:d8:d5:6f:8b:02:e1:a5:50:1f:e8:
         73:e9:fb:f1
-----BEGIN CERTIFICATE-----
MIIFYDCCBEigAwIBAgIBATANBgkqhkiG9w0BAQsFADCBqTELMAkGA1UEBhMCRlIx
CzAJBgNVBAgTAklMMRcwFQYDVQQHEw5JdnJ5LXN1ci1TZWluZTEUMBIGA1UEChML
Q2FudGJyZWFraXQxETAPBgNVBAsTCHNlY3VyaXR5MRcwFQYDVQQDEw5DYW50YnJl
YWtpdCBDQTEOMAwGA1UEKRMFTXlWUE4xIjAgBgkqhkiG9w0BCQEWE3Jvb3RAY2Fu
dGJyZWFraXQuZnIwHhcNMTYxMDE4MDcxMjIyWhcNMjYxMDE2MDcxMjIyWjCBpjEL
MAkGA1UEBhMCRlIxCzAJBgNVBAgTAklMMRcwFQYDVQQHEw5JdnJ5LXN1ci1TZWlu
ZTEUMBIGA1UEChMLQ2FudGJyZWFraXQxETAPBgNVBAsTCHNlY3VyaXR5MRQwEgYD
VQQDFAtzZXJ2ZXJfeDUwOTEOMAwGA1UEKRMFTXlWUE4xIjAgBgkqhkiG9w0BCQEW
E3Jvb3RAY2FudGJyZWFraXQuZnIwggEiMA0GCSqGSIb3DQEBAQUAA4IBDwAwggEK
AoIBAQDp0g6K61jRTpt5FsWUfD5myM0iZc08SbVYF8C17hsEQJXmC8XZbOga1B8v
uLTgtwJFOSiJ8LzVaP5d1qBH9Xb6uFCFfwrk8LEMLt4n3H8gkkDxL/GRCSPYHduN
p5dDlVV7W7Ogk9RdQ5oFTtEq4Y+4uD9ipiR6DFrU2Hmjn7vke+2MStJMcCOxxNF/
FG1t4iJfn/uuv9oGSndTbBQCfT7Asvb/qsfVEMtRAHt19aLxek6cMTlPEaPDQjEl
iaPrYPafHtVWl9916Fkg0JQ7zV7actMcYAZ01sig/POdQrXS2TfM8OsHAXlZ9iIq
CDXEzTKxCCIy4O0uQfUWJaH5twypAgMBAAGjggGSMIIBjjAJBgNVHRMEAjAAMBEG
CWCGSAGG+EIBAQQEAwIGQDA0BglghkgBhvhCAQ0EJxYlRWFzeS1SU0EgR2VuZXJh
dGVkIFNlcnZlciBDZXJ0aWZpY2F0ZTAdBgNVHQ4EFgQUkFQnGAP85DdFflCPtaQz
IcEEJ48wgd4GA1UdIwSB1jCB04AUrLWkBU80GwyXFPf4D+TZCGY80wyhga+kgaww
gakxCzAJBgNVBAYTAkZSMQswCQYDVQQIEwJJTDEXMBUGA1UEBxMOSXZyeS1zdXIt
U2VpbmUxFDASBgNVBAoTC0NhbnRicmVha2l0MREwDwYDVQQLEwhzZWN1cml0eTEX
MBUGA1UEAxMOQ2FudGJyZWFraXQgQ0ExDjAMBgNVBCkTBU15VlBOMSIwIAYJKoZI
hvcNAQkBFhNyb290QGNhbnRicmVha2l0LmZyggkA1zoqkD3IUi8wEwYDVR0lBAww
CgYIKwYBBQUHAwEwCwYDVR0PBAQDAgWgMBYGA1UdEQQPMA2CC3NlcnZlcl94NTA5
MA0GCSqGSIb3DQEBCwUAA4IBAQCyUj9GvV8s/XDD9UnHDEFXdoiMp1i6K/UmxM6B
RJphxNY9MC5aYwNRI8rwdUg0Wp4z4mxz+XAH4eKG1/H3hCqbsagDngfJK7Sn8H2l
U5AiASSbIbRTR9XsR/uHCk7L711pxixX8JA0GFfyN7eZcP4335OGoouGOVQ8DgQk
ZpZu507P+12OEe2nZp3CXWmhSeA8PF7OcBPNc1VZ7cFsTP9NYjlzVqEl3qLxs+o0
r+LzIbKDmroKqQhzdvKfCP8U9ATd9hSRE86yC+d9SyDEqQIIEXougwahve4hEdqn
L9PgRioRteJJGusjP+qEGYPxyjjylNjVb4sC4aVQH+hz6fvx
-----END CERTIFICATE-----
