Certificate:
    Data:
        Version: 3 (0x2)
        Serial Number: 3 (0x3)
    Signature Algorithm: sha256WithRSAEncryption
        Issuer: C=FR, ST=IL, L=Ivry-sur-Seine, O=Cantbreakit, OU=security, CN=Cantbreakit CA/name=MyVPN/emailAddress=root@cantbreakit.fr
        Validity
            Not Before: Oct 18 07:21:04 2016 GMT
            Not After : Oct 16 07:21:04 2026 GMT
        Subject: C=FR, ST=IL, L=Ivry-sur-Seine, O=Cantbreakit, OU=security, CN=client2/name=MyVPN/emailAddress=client2@cantbreakit.fr
        Subject Public Key Info:
            Public Key Algorithm: rsaEncryption
                Public-Key: (2048 bit)
                Modulus:
                    00:c9:f9:2c:18:36:9b:b4:a6:35:37:c6:f8:56:51:
                    a9:e8:d3:cb:8c:15:be:e2:f9:a5:01:d7:ec:be:ba:
                    ce:b3:6b:c6:0c:a8:46:d2:22:ea:d9:b2:31:8e:fe:
                    d3:16:9c:1f:f6:33:10:5e:ed:6a:dd:0b:ce:e5:4d:
                    3e:b2:e8:99:40:29:9c:2c:eb:a2:e0:26:31:dd:1b:
                    72:80:fc:dd:77:d8:42:07:7f:cc:33:ae:99:2d:c8:
                    83:bf:d9:83:06:d0:e9:c7:09:90:14:ce:ef:a9:af:
                    1b:d8:79:50:31:f6:fb:d5:10:44:21:5a:29:5d:a8:
                    9f:13:0e:9a:9e:47:4e:e1:b7:d0:f6:94:94:b1:b4:
                    9c:7a:99:01:fd:4f:6b:02:63:1f:1b:f1:09:a9:aa:
                    51:03:bc:cf:31:3d:e0:34:80:52:dc:9c:cb:92:3b:
                    14:56:1b:ea:5f:ea:79:da:46:da:25:8e:5c:9a:da:
                    8d:8f:d4:f1:60:96:3e:a9:0c:91:ea:95:9f:ef:63:
                    fb:a4:3d:cd:d6:17:83:ae:de:1a:b4:a9:51:ce:87:
                    12:41:31:36:9a:6b:f7:56:1f:43:4b:45:53:e5:c3:
                    1b:b8:d7:b0:53:c2:4b:04:6e:ea:d9:ff:34:11:22:
                    93:6f:f2:10:7e:e5:f2:d1:82:96:6a:66:a5:e7:21:
                    12:69
                Exponent: 65537 (0x10001)
        X509v3 extensions:
            X509v3 Basic Constraints: 
                CA:FALSE
            Netscape Comment: 
                Easy-RSA Generated Certificate
            X509v3 Subject Key Identifier: 
                9D:04:B9:9E:E5:C4:66:85:E3:DF:91:79:C0:58:43:A8:AD:29:9F:66
            X509v3 Authority Key Identifier: 
                keyid:AC:B5:A4:05:4F:34:1B:0C:97:14:F7:F8:0F:E4:D9:08:66:3C:D3:0C
                DirName:/C=FR/ST=IL/L=Ivry-sur-Seine/O=Cantbreakit/OU=security/CN=Cantbreakit CA/name=MyVPN/emailAddress=root@cantbreakit.fr
                serial:D7:3A:2A:90:3D:C8:52:2F

            X509v3 Extended Key Usage: 
                TLS Web Client Authentication
            X509v3 Key Usage: 
                Digital Signature
            X509v3 Subject Alternative Name: 
                DNS:client2
    Signature Algorithm: sha256WithRSAEncryption
         7e:b1:b1:4c:4a:d1:53:25:b8:1f:3c:54:b5:de:dc:6e:ff:94:
         3d:b1:1f:d0:ad:c0:8f:69:1e:9a:58:5e:ee:08:6f:39:da:fb:
         77:9d:fa:7c:09:c2:c5:68:1e:55:cc:df:e9:30:98:32:61:44:
         c0:8d:b7:cf:02:60:9b:8e:11:e6:c2:28:68:a5:64:ec:5d:cb:
         79:ba:17:3f:eb:2f:83:b3:df:10:b8:93:a2:8b:11:b8:f2:af:
         86:93:67:8d:cb:be:d2:7f:e8:6e:84:94:75:62:4f:88:f4:f3:
         e4:64:bb:23:be:8f:c5:b1:23:df:64:e0:16:8b:27:f4:cf:34:
         dc:7a:0d:2f:ca:52:4b:3a:d6:97:ae:88:d8:f1:fa:36:1f:18:
         f5:32:3b:ff:81:fe:d4:ef:fc:3b:8b:68:62:b0:a0:cf:82:eb:
         91:a2:08:97:cb:f8:b2:a4:0c:82:e0:8e:2f:b7:37:3b:12:47:
         12:03:c1:54:03:f2:f1:85:46:88:fa:6f:94:3e:22:7e:08:87:
         20:d8:7e:3d:c2:82:43:b4:fa:69:53:b3:d4:cb:3a:14:94:f7:
         3f:cf:4a:e6:67:bf:ff:60:d8:74:2e:eb:01:be:64:cf:61:33:
         d1:9b:7e:53:e9:07:58:fb:8e:75:d0:5b:a0:05:6d:ad:52:78:
         58:87:ff:86
-----BEGIN CERTIFICATE-----
MIIFQTCCBCmgAwIBAgIBAzANBgkqhkiG9w0BAQsFADCBqTELMAkGA1UEBhMCRlIx
CzAJBgNVBAgTAklMMRcwFQYDVQQHEw5JdnJ5LXN1ci1TZWluZTEUMBIGA1UEChML
Q2FudGJyZWFraXQxETAPBgNVBAsTCHNlY3VyaXR5MRcwFQYDVQQDEw5DYW50YnJl
YWtpdCBDQTEOMAwGA1UEKRMFTXlWUE4xIjAgBgkqhkiG9w0BCQEWE3Jvb3RAY2Fu
dGJyZWFraXQuZnIwHhcNMTYxMDE4MDcyMTA0WhcNMjYxMDE2MDcyMTA0WjCBpTEL
MAkGA1UEBhMCRlIxCzAJBgNVBAgTAklMMRcwFQYDVQQHEw5JdnJ5LXN1ci1TZWlu
ZTEUMBIGA1UEChMLQ2FudGJyZWFraXQxETAPBgNVBAsTCHNlY3VyaXR5MRAwDgYD
VQQDEwdjbGllbnQyMQ4wDAYDVQQpEwVNeVZQTjElMCMGCSqGSIb3DQEJARYWY2xp
ZW50MkBjYW50YnJlYWtpdC5mcjCCASIwDQYJKoZIhvcNAQEBBQADggEPADCCAQoC
ggEBAMn5LBg2m7SmNTfG+FZRqejTy4wVvuL5pQHX7L66zrNrxgyoRtIi6tmyMY7+
0xacH/YzEF7tat0LzuVNPrLomUApnCzrouAmMd0bcoD83XfYQgd/zDOumS3Ig7/Z
gwbQ6ccJkBTO76mvG9h5UDH2+9UQRCFaKV2onxMOmp5HTuG30PaUlLG0nHqZAf1P
awJjHxvxCamqUQO8zzE94DSAUtycy5I7FFYb6l/qedpG2iWOXJrajY/U8WCWPqkM
keqVn+9j+6Q9zdYXg67eGrSpUc6HEkExNppr91YfQ0tFU+XDG7jXsFPCSwRu6tn/
NBEik2/yEH7l8tGClmpmpechEmkCAwEAAaOCAXQwggFwMAkGA1UdEwQCMAAwLQYJ
YIZIAYb4QgENBCAWHkVhc3ktUlNBIEdlbmVyYXRlZCBDZXJ0aWZpY2F0ZTAdBgNV
HQ4EFgQUnQS5nuXEZoXj35F5wFhDqK0pn2Ywgd4GA1UdIwSB1jCB04AUrLWkBU80
GwyXFPf4D+TZCGY80wyhga+kgawwgakxCzAJBgNVBAYTAkZSMQswCQYDVQQIEwJJ
TDEXMBUGA1UEBxMOSXZyeS1zdXItU2VpbmUxFDASBgNVBAoTC0NhbnRicmVha2l0
MREwDwYDVQQLEwhzZWN1cml0eTEXMBUGA1UEAxMOQ2FudGJyZWFraXQgQ0ExDjAM
BgNVBCkTBU15VlBOMSIwIAYJKoZIhvcNAQkBFhNyb290QGNhbnRicmVha2l0LmZy
ggkA1zoqkD3IUi8wEwYDVR0lBAwwCgYIKwYBBQUHAwIwCwYDVR0PBAQDAgeAMBIG
A1UdEQQLMAmCB2NsaWVudDIwDQYJKoZIhvcNAQELBQADggEBAH6xsUxK0VMluB88
VLXe3G7/lD2xH9CtwI9pHppYXu4Ibzna+3ed+nwJwsVoHlXM3+kwmDJhRMCNt88C
YJuOEebCKGilZOxdy3m6Fz/rL4Oz3xC4k6KLEbjyr4aTZ43LvtJ/6G6ElHViT4j0
8+RkuyO+j8WxI99k4BaLJ/TPNNx6DS/KUks61peuiNjx+jYfGPUyO/+B/tTv/DuL
aGKwoM+C65GiCJfL+LKkDILgji+3NzsSRxIDwVQD8vGFRoj6b5Q+In4IhyDYfj3C
gkO0+mlTs9TLOhSU9z/PSuZnv/9g2HQu6wG+ZM9hM9GbflPpB1j7jnXQW6AFba1S
eFiH/4Y=
-----END CERTIFICATE-----
